target datalayout = "e-m:e-p270:32:32-p271:32:32-p272:64:64-i64:64-i128:128-f80:128-n8:16:32:64-S128"
target triple = "x86_64-pc-linux-gnu"

%"class.vcg::Point3" = type { [3 x float] }
%"class.vcg::TrackMode" = type { ptr }
%"class.vcg::NavigatorWasdMode" = type { %"class.vcg::TrackMode", float, float, %"class.vcg::Point3", float, float, float, i32, i32, float, float, float, float, float, float, float, float }

; Function Attrs: mustprogress nounwind uwtable
define void @_ZN3vcg17NavigatorWasdMode18SetTopSpeedsAndAccEfff(ptr noundef nonnull align 8 dereferenceable(80) %0, float noundef %1, float noundef %2, float noundef %3) #0 align 2 {
  %5 = alloca ptr, align 8
  %6 = alloca float, align 4
  %7 = alloca float, align 4
  %8 = alloca float, align 4
  store ptr %0, ptr %5, align 8
  store float %1, ptr %6, align 4
  store float %2, ptr %7, align 4
  store float %3, ptr %8, align 4
  %9 = load ptr, ptr %5, align 8
  %10 = load float, ptr %6, align 4
  %11 = fdiv float %10, 1.000000e+03
  store float %11, ptr %6, align 4
  %12 = load float, ptr %7, align 4
  %13 = fdiv float %12, 1.000000e+03
  store float %13, ptr %7, align 4
  %14 = load float, ptr %8, align 4
  %15 = fdiv float %14, 1.000000e+06
  store float %15, ptr %8, align 4
  %16 = load float, ptr %8, align 4
  %17 = getelementptr inbounds %"class.vcg::NavigatorWasdMode", ptr %9, i32 0, i32 10
  store float %16, ptr %17, align 4
  %18 = getelementptr inbounds %"class.vcg::NavigatorWasdMode", ptr %9, i32 0, i32 9
  store float %16, ptr %18, align 8
  %19 = load float, ptr %6, align 4
  %20 = load float, ptr %6, align 4
  %21 = load float, ptr %8, align 4
  %22 = fadd float %20, %21
  %23 = fdiv float %19, %22
  %24 = getelementptr inbounds %"class.vcg::NavigatorWasdMode", ptr %9, i32 0, i32 12
  store float %23, ptr %24, align 4
  %25 = load float, ptr %7, align 4
  %26 = getelementptr inbounds %"class.vcg::NavigatorWasdMode", ptr %9, i32 0, i32 12
  %27 = load float, ptr %26, align 4
  %28 = fdiv float %25, %27
  %29 = load float, ptr %7, align 4
  %30 = fsub float %28, %29
  %31 = getelementptr inbounds %"class.vcg::NavigatorWasdMode", ptr %9, i32 0, i32 11
  store float %30, ptr %31, align 8
  %32 = load float, ptr %8, align 4
  %33 = fcmp oeq float %32, 0.000000e+00
  br i1 %33, label %34, label %41

34:                                               ; preds = %4
  %35 = load float, ptr %6, align 4
  %36 = getelementptr inbounds %"class.vcg::NavigatorWasdMode", ptr %9, i32 0, i32 10
  store float %35, ptr %36, align 4
  %37 = getelementptr inbounds %"class.vcg::NavigatorWasdMode", ptr %9, i32 0, i32 9
  store float %35, ptr %37, align 8
  %38 = load float, ptr %7, align 4
  %39 = getelementptr inbounds %"class.vcg::NavigatorWasdMode", ptr %9, i32 0, i32 11
  store float %38, ptr %39, align 8
  %40 = getelementptr inbounds %"class.vcg::NavigatorWasdMode", ptr %9, i32 0, i32 12
  store float 0.000000e+00, ptr %40, align 4
  br label %41

41:                                               ; preds = %34, %4
  %42 = load float, ptr %6, align 4
  %43 = getelementptr inbounds %"class.vcg::NavigatorWasdMode", ptr %9, i32 0, i32 13
  store float %42, ptr %43, align 8
  %44 = load float, ptr %7, align 4
  %45 = getelementptr inbounds %"class.vcg::NavigatorWasdMode", ptr %9, i32 0, i32 14
  store float %44, ptr %45, align 4
  ret void
}