; Function Attrs: mustprogress nofree norecurse nosync nounwind willreturn memory(argmem: write) uwtable
define void @_ZN3vcg17NavigatorWasdMode18SetTopSpeedsAndAccEfff(ptr nocapture noundef nonnull writeonly align 8 dereferenceable(80) %0, float noundef %1, float noundef %2, float noundef %3) local_unnamed_addr #8 align 2 {
  %5 = insertelement <2 x float> poison, float %1, i64 0
  %6 = insertelement <2 x float> %5, float %2, i64 1
  %7 = fdiv <2 x float> %6, <float 1.000000e+03, float 1.000000e+03>
  %8 = fdiv float %3, 1.000000e+06
  %9 = getelementptr inbounds i8, ptr %0, i64 52
  store float %8, ptr %9, align 4
  %10 = getelementptr inbounds i8, ptr %0, i64 48
  store float %8, ptr %10, align 8
  %11 = extractelement <2 x float> %7, i64 0
  %12 = fadd float %11, %8
  %13 = fdiv float %11, %12
  %14 = getelementptr inbounds i8, ptr %0, i64 60
  store float %13, ptr %14, align 4
  %15 = extractelement <2 x float> %7, i64 1
  %16 = fdiv float %15, %13
  %17 = fsub float %16, %15
  %18 = getelementptr inbounds i8, ptr %0, i64 56
  store float %17, ptr %18, align 8
  %19 = fcmp oeq float %8, 0.000000e+00
  br i1 %19, label %20, label %21

20:                                               ; preds = %4
  store float %11, ptr %10, align 8
  store <2 x float> %7, ptr %9, align 4
  store float 0.000000e+00, ptr %14, align 4
  br label %21

21:                                               ; preds = %20, %4
  %22 = getelementptr inbounds i8, ptr %0, i64 64
  store <2 x float> %7, ptr %22, align 8
  ret void
}